target datalayout = "e-m:e-p270:32:32-p271:32:32-p272:64:64-i64:64-i128:128-f80:128-n8:16:32:64-S128"
target triple = "x86_64-pc-linux-gnu"

%class.MeshLabPlugin = type { ptr, i8, %class.QFileInfo }
%class.QFileInfo = type { %class.QSharedDataPointer }
%class.QSharedDataPointer = type { ptr }

@_ZTT20FilterFunctionPlugin = external unnamed_addr constant [7 x ptr], align 8
@_ZTV13MeshLabPlugin = linkonce_odr unnamed_addr constant { [7 x ptr] } { [7 x ptr] [ptr null, ptr @_ZTI13MeshLabPlugin, ptr @_ZN13MeshLabPluginD2Ev, ptr @_ZN13MeshLabPluginD0Ev, ptr @__cxa_pure_virtual, ptr @__cxa_pure_virtual, ptr @_ZNK13MeshLabPlugin6vendorEv] }, comdat, align 8

; Function Attrs: mustprogress nounwind uwtable
define linkonce_odr void @_ZN13MeshLabPluginD2Ev(ptr noundef nonnull align 8 dereferenceable(24) %0) unnamed_addr #4 comdat align 2 {
  %2 = alloca ptr, align 8
  store ptr %0, ptr %2, align 8
  %3 = load ptr, ptr %2, align 8
  store ptr getelementptr inbounds ({ [7 x ptr] }, ptr @_ZTV13MeshLabPlugin, i32 0, i32 0, i32 2), ptr %3, align 8
  %4 = getelementptr inbounds %class.MeshLabPlugin, ptr %3, i32 0, i32 2
  call void @_ZN9QFileInfoD1Ev(ptr noundef nonnull align 8 dereferenceable(8) %4) #3
  ret void
}

; Function Attrs: mustprogress nounwind uwtable
define linkonce_odr void @_ZN19MeshLabPluginLoggerD2Ev(ptr noundef nonnull align 8 dereferenceable(16) %0) unnamed_addr #4 comdat align 2 {
  %2 = alloca ptr, align 8
  store ptr %0, ptr %2, align 8
  ret void
}

; Function Attrs: mustprogress nounwind uwtable
define void @_ZN20FilterFunctionPluginD1Ev(ptr noundef nonnull align 8 dereferenceable(1048) %0) unnamed_addr #4 align 2 {
  %2 = alloca ptr, align 8
  store ptr %0, ptr %2, align 8
  %3 = load ptr, ptr %2, align 8
  call void @_ZN20FilterFunctionPluginD2Ev(ptr noundef nonnull align 8 dereferenceable(1048) %3, ptr noundef @_ZTT20FilterFunctionPlugin) #3
  %4 = getelementptr inbounds i8, ptr %3, i64 1072
  call void @_ZN19MeshLabPluginLoggerD2Ev(ptr noundef nonnull align 8 dereferenceable(16) %4) #3
  %5 = getelementptr inbounds i8, ptr %3, i64 1048
  call void @_ZN13MeshLabPluginD2Ev(ptr noundef nonnull align 8 dereferenceable(24) %5) #3
  ret void
}

; Function Attrs: mustprogress nounwind uwtable
define void @_ZN20FilterFunctionPluginD0Ev(ptr noundef nonnull align 8 dereferenceable(1048) %0) unnamed_addr #4 align 2 {
  %2 = alloca ptr, align 8
  store ptr %0, ptr %2, align 8
  %3 = load ptr, ptr %2, align 8
  call void @_ZN20FilterFunctionPluginD1Ev(ptr noundef nonnull align 8 dereferenceable(1048) %3) #3
  call void @_ZdlPv(ptr noundef %3) #24
  ret void
}